target datalayout = "e-m:e-p270:32:32-p271:32:32-p272:64:64-i64:64-i128:128-f80:128-n8:16:32:64-S128"
target triple = "x86_64-pc-linux-gnu"

; Function Attrs: nounwind uwtable
define internal i32 @little2_nameMatchesAscii(ptr noundef %0, ptr noundef %1, ptr noundef %2, ptr noundef %3) #0 {
  %5 = alloca i32, align 4
  %6 = alloca ptr, align 8
  %7 = alloca ptr, align 8
  %8 = alloca ptr, align 8
  %9 = alloca ptr, align 8
  store ptr %0, ptr %6, align 8, !tbaa !45
  store ptr %1, ptr %7, align 8, !tbaa !4
  store ptr %2, ptr %8, align 8, !tbaa !4
  store ptr %3, ptr %9, align 8, !tbaa !4
  br label %10

10:                                               ; preds = %39, %4
  %11 = load ptr, ptr %9, align 8, !tbaa !4
  %12 = load i8, ptr %11, align 1, !tbaa !13
  %13 = icmp ne i8 %12, 0
  br i1 %13, label %14, label %44

14:                                               ; preds = %10
  %15 = load ptr, ptr %8, align 8, !tbaa !4
  %16 = load ptr, ptr %7, align 8, !tbaa !4
  %17 = ptrtoint ptr %15 to i64
  %18 = ptrtoint ptr %16 to i64
  %19 = sub i64 %17, %18
  %20 = icmp slt i64 %19, 2
  br i1 %20, label %21, label %22

21:                                               ; preds = %14
  store i32 0, ptr %5, align 4
  br label %49

22:                                               ; preds = %14
  %23 = load ptr, ptr %7, align 8, !tbaa !4
  %24 = getelementptr inbounds i8, ptr %23, i64 1
  %25 = load i8, ptr %24, align 1, !tbaa !13
  %26 = sext i8 %25 to i32
  %27 = icmp eq i32 %26, 0
  br i1 %27, label %28, label %37

28:                                               ; preds = %22
  %29 = load ptr, ptr %7, align 8, !tbaa !4
  %30 = getelementptr inbounds i8, ptr %29, i64 0
  %31 = load i8, ptr %30, align 1, !tbaa !13
  %32 = sext i8 %31 to i32
  %33 = load ptr, ptr %9, align 8, !tbaa !4
  %34 = load i8, ptr %33, align 1, !tbaa !13
  %35 = sext i8 %34 to i32
  %36 = icmp eq i32 %32, %35
  br i1 %36, label %38, label %37

37:                                               ; preds = %28, %22
  store i32 0, ptr %5, align 4
  br label %49

38:                                               ; preds = %28
  br label %39

39:                                               ; preds = %38
  %40 = load ptr, ptr %7, align 8, !tbaa !4
  %41 = getelementptr inbounds i8, ptr %40, i64 2
  store ptr %41, ptr %7, align 8, !tbaa !4
  %42 = load ptr, ptr %9, align 8, !tbaa !4
  %43 = getelementptr inbounds nuw i8, ptr %42, i32 1
  store ptr %43, ptr %9, align 8, !tbaa !4
  br label %10, !llvm.loop !117

44:                                               ; preds = %10
  %45 = load ptr, ptr %7, align 8, !tbaa !4
  %46 = load ptr, ptr %8, align 8, !tbaa !4
  %47 = icmp eq ptr %45, %46
  %48 = zext i1 %47 to i32
  store i32 %48, ptr %5, align 4
  br label %49

49:                                               ; preds = %44, %37, %21
  %50 = load i32, ptr %5, align 4
  ret i32 %50
}