; Function Attrs: nofree norecurse nosync nounwind memory(argmem: read) uwtable
define internal range(i32 0, 2) i32 @little2_nameMatchesAscii(ptr readnone captures(none) %0, ptr noundef %1, ptr noundef %2, ptr noundef readonly captures(none) %3) #7 {
  %5 = load i8, ptr %3, align 1, !tbaa !9
  %.not14 = icmp eq i8 %5, 0
  br i1 %.not14, label %._crit_edge, label %.lr.ph

.lr.ph:                                           ; preds = %4
  %6 = ptrtoint ptr %2 to i64
  br label %7

7:                                                ; preds = %.lr.ph, %19
  %8 = phi i8 [ %5, %.lr.ph ], [ %22, %19 ]
  %.016 = phi ptr [ %3, %.lr.ph ], [ %21, %19 ]
  %.01115 = phi ptr [ %1, %.lr.ph ], [ %20, %19 ]
  %9 = ptrtoint ptr %.01115 to i64
  %10 = sub i64 %6, %9
  %11 = icmp slt i64 %10, 2
  br i1 %11, label %.loopexit, label %12

12:                                               ; preds = %7
  %13 = getelementptr inbounds nuw i8, ptr %.01115, i64 1
  %14 = load i8, ptr %13, align 1, !tbaa !9
  %15 = icmp eq i8 %14, 0
  br i1 %15, label %16, label %.loopexit

16:                                               ; preds = %12
  %17 = load i8, ptr %.01115, align 1, !tbaa !9
  %18 = icmp eq i8 %17, %8
  br i1 %18, label %19, label %.loopexit

19:                                               ; preds = %16
  %20 = getelementptr inbounds nuw i8, ptr %.01115, i64 2
  %21 = getelementptr inbounds nuw i8, ptr %.016, i64 1
  %22 = load i8, ptr %21, align 1, !tbaa !9
  %.not = icmp eq i8 %22, 0
  br i1 %.not, label %._crit_edge, label %7, !llvm.loop !105

._crit_edge:                                      ; preds = %19, %4
  %.011.lcssa = phi ptr [ %1, %4 ], [ %20, %19 ]
  %23 = icmp eq ptr %.011.lcssa, %2
  %24 = zext i1 %23 to i32
  br label %.loopexit

.loopexit:                                        ; preds = %12, %16, %7, %._crit_edge
  %.010 = phi i32 [ %24, %._crit_edge ], [ 0, %7 ], [ 0, %16 ], [ 0, %12 ]
  ret i32 %.010
}